; Function Attrs: mustprogress uwtable
define noundef signext range(i8 0, 2) i8 @_ZN6icu_779UVector6414expandCapacityEiR10UErrorCode(ptr noundef nonnull align 8 captures(none) dereferenceable(32) %0, i32 noundef %1, ptr noundef nonnull align 4 captures(none) dereferenceable(4) %2) local_unnamed_addr #1 align 2 {
  %4 = load i32, ptr %2, align 4, !tbaa !16
  %5 = icmp slt i32 %4, 1
  br i1 %5, label %6, label %35

6:                                                ; preds = %3
  %7 = icmp slt i32 %1, 0
  br i1 %7, label %8, label %9

8:                                                ; preds = %6
  store i32 1, ptr %2, align 4, !tbaa !16
  br label %35

9:                                                ; preds = %6
  %10 = getelementptr inbounds nuw i8, ptr %0, i64 12
  %11 = load i32, ptr %10, align 4, !tbaa !13
  %.not27 = icmp slt i32 %11, %1
  br i1 %.not27, label %12, label %35

12:                                               ; preds = %9
  %13 = getelementptr inbounds nuw i8, ptr %0, i64 16
  %14 = load i32, ptr %13, align 8, !tbaa !14
  %15 = icmp sgt i32 %14, 0
  %16 = icmp sgt i32 %1, %14
  %or.cond = and i1 %15, %16
  br i1 %or.cond, label %17, label %18

17:                                               ; preds = %12
  store i32 15, ptr %2, align 4, !tbaa !16
  br label %35

18:                                               ; preds = %12
  %19 = icmp sgt i32 %11, 1073741823
  br i1 %19, label %20, label %21

20:                                               ; preds = %18
  store i32 1, ptr %2, align 4, !tbaa !16
  br label %35

21:                                               ; preds = %18
  %22 = shl nsw i32 %11, 1
  %spec.select = tail call i32 @llvm.smax.i32(i32 %22, i32 %1)
  %23 = tail call i32 @llvm.smin.i32(i32 %spec.select, i32 %14)
  %.120 = select i1 %15, i32 %23, i32 %spec.select
  %24 = icmp sgt i32 %.120, 268435455
  br i1 %24, label %25, label %26

25:                                               ; preds = %21
  store i32 1, ptr %2, align 4, !tbaa !16
  br label %35

26:                                               ; preds = %21
  %27 = getelementptr inbounds nuw i8, ptr %0, i64 24
  %28 = load ptr, ptr %27, align 8, !tbaa !15
  %29 = zext nneg i32 %.120 to i64
  %30 = shl nuw nsw i64 %29, 3
  %31 = tail call ptr @uprv_realloc_77(ptr noundef %28, i64 noundef %30) #17
  %32 = icmp eq ptr %31, null
  br i1 %32, label %33, label %34

33:                                               ; preds = %26
  store i32 7, ptr %2, align 4, !tbaa !16
  br label %35

34:                                               ; preds = %26
  store ptr %31, ptr %27, align 8, !tbaa !15
  store i32 %.120, ptr %10, align 4, !tbaa !13
  br label %35

35:                                               ; preds = %25, %34, %33, %9, %3, %20, %17, %8
  %.0 = phi i8 [ 0, %8 ], [ 0, %17 ], [ 0, %20 ], [ 0, %3 ], [ 1, %9 ], [ 0, %25 ], [ 0, %33 ], [ 1, %34 ]
  ret i8 %.0
}